target datalayout = "e-m:e-p270:32:32-p271:32:32-p272:64:64-i64:64-i128:128-f80:128-n8:16:32:64-S128"
target triple = "x86_64-unknown-linux-gnu"

%"class.QuantLib::Date" = type { i64 }
%"class.boost::detail::shared_count" = type { ptr }
%"class.QuantLib::MarketQuotedOptionPricer" = type { %"class.QuantLib::VanillaOptionPricer", double, %"class.QuantLib::Date", %"class.QuantLib::Period", %"class.boost::shared_ptr.49", %"class.boost::shared_ptr.48" }
%"class.QuantLib::VanillaOptionPricer" = type { ptr }
%"class.QuantLib::Period" = type { i32, i32 }
%"class.boost::shared_ptr.49" = type { ptr, %"class.boost::detail::shared_count" }
%"class.boost::shared_ptr.48" = type { ptr, %"class.boost::detail::shared_count" }

@.str.25 = private unnamed_addr constant [8 x i8] c"px != 0\00", align 1
@.str.26 = private unnamed_addr constant [102 x i8] c"generated/home/dtcxzyw/WorkSpace/SDK/vcpkg/installed/x64-linux/include/boost/smart_ptr/shared_ptr.hpp\00", align 1
@__PRETTY_FUNCTION__._ZNK5boost10shared_ptrIN8QuantLib12SmileSectionEEptEv = private unnamed_addr constant [141 x i8] c"typename boost::detail::sp_member_access<T>::type boost::shared_ptr<QuantLib::SmileSection>::operator->() const [T = QuantLib::SmileSection]\00", align 1

; Function Attrs: mustprogress uwtable
define linkonce_odr noundef ptr @_ZNK5boost10shared_ptrIN8QuantLib27SwaptionVolatilityStructureEEptEv(ptr noundef nonnull align 8 dereferenceable(16) %this) #2 comdat align 2 {
entry:
  %this.addr = alloca ptr, align 8
  store ptr %this, ptr %this.addr, align 8, !tbaa !3
  %this1 = load ptr, ptr %this.addr, align 8
  %px = getelementptr inbounds nuw %"class.boost::shared_ptr.49", ptr %this1, i32 0, i32 0
  %0 = load ptr, ptr %px, align 8, !tbaa !34
  %cmp = icmp ne ptr %0, null
  %lnot = xor i1 %cmp, true
  %lnot2 = xor i1 %lnot, true
  %conv = zext i1 %lnot2 to i64
  %expval = call i64 @llvm.expect.i64(i64 %conv, i64 1)
  %tobool = icmp ne i64 %expval, 0
  br i1 %tobool, label %cond.true, label %cond.false

cond.true:                                        ; preds = %entry
  br label %cond.end

cond.false:                                       ; preds = %entry
  call void @_ZN5boost16assertion_failedEPKcS1_S1_l(ptr noundef @.str.25, ptr noundef @__PRETTY_FUNCTION__._ZNK5boost10shared_ptrIN8QuantLib27SwaptionVolatilityStructureEEptEv, ptr noundef @.str.26, i64 noundef 784)
  br label %cond.end

cond.end:                                         ; preds = %cond.false, %cond.true
  %px3 = getelementptr inbounds nuw %"class.boost::shared_ptr.49", ptr %this1, i32 0, i32 0
  %1 = load ptr, ptr %px3, align 8, !tbaa !34
  ret ptr %1
}

; Function Attrs: inlinehint mustprogress uwtable
define linkonce_odr noundef double @_ZNK8QuantLib12SmileSection8varianceEd(ptr noundef nonnull align 8 dereferenceable(72) %this, double noundef %strike) #4 comdat align 2 {
entry:
  %this.addr = alloca ptr, align 8
  %strike.addr = alloca double, align 8
  store ptr %this, ptr %this.addr, align 8, !tbaa !3
  store double %strike, ptr %strike.addr, align 8, !tbaa !18
  %this1 = load ptr, ptr %this.addr, align 8
  %0 = load double, ptr %strike.addr, align 8, !tbaa !18
  %vtable = load ptr, ptr %this1, align 8, !tbaa !12
  %vfn = getelementptr inbounds ptr, ptr %vtable, i64 17
  %1 = load ptr, ptr %vfn, align 8
  %call = call noundef double %1(ptr noundef nonnull align 8 dereferenceable(72) %this1, double noundef %0)
  ret double %call
}

; Function Attrs: mustprogress uwtable
define linkonce_odr noundef ptr @_ZNK5boost10shared_ptrIN8QuantLib12SmileSectionEEptEv(ptr noundef nonnull align 8 dereferenceable(16) %this) #2 comdat align 2 {
entry:
  %this.addr = alloca ptr, align 8
  store ptr %this, ptr %this.addr, align 8, !tbaa !3
  %this1 = load ptr, ptr %this.addr, align 8
  %px = getelementptr inbounds nuw %"class.boost::shared_ptr.48", ptr %this1, i32 0, i32 0
  %0 = load ptr, ptr %px, align 8, !tbaa !41
  %cmp = icmp ne ptr %0, null
  %lnot = xor i1 %cmp, true
  %lnot2 = xor i1 %lnot, true
  %conv = zext i1 %lnot2 to i64
  %expval = call i64 @llvm.expect.i64(i64 %conv, i64 1)
  %tobool = icmp ne i64 %expval, 0
  br i1 %tobool, label %cond.true, label %cond.false

cond.true:                                        ; preds = %entry
  br label %cond.end

cond.false:                                       ; preds = %entry
  call void @_ZN5boost16assertion_failedEPKcS1_S1_l(ptr noundef @.str.25, ptr noundef @__PRETTY_FUNCTION__._ZNK5boost10shared_ptrIN8QuantLib12SmileSectionEEptEv, ptr noundef @.str.26, i64 noundef 784)
  br label %cond.end

cond.end:                                         ; preds = %cond.false, %cond.true
  %px3 = getelementptr inbounds nuw %"class.boost::shared_ptr.48", ptr %this1, i32 0, i32 0
  %1 = load ptr, ptr %px3, align 8, !tbaa !41
  ret ptr %1
}

; Function Attrs: mustprogress uwtable
define noundef double @_ZNK8QuantLib24MarketQuotedOptionPricerclEdNS_6Option4TypeEd(ptr noundef nonnull align 8 dereferenceable(64) %this, double noundef %strike, i32 noundef %optionType, double noundef %deflator) unnamed_addr #2 align 2 {
entry:
  %retval = alloca double, align 8
  %this.addr = alloca ptr, align 8
  %strike.addr = alloca double, align 8
  %optionType.addr = alloca i32, align 4
  %deflator.addr = alloca double, align 8
  %variance = alloca double, align 8
  %cleanup.dest.slot = alloca i32, align 4
  store ptr %this, ptr %this.addr, align 8, !tbaa !3
  store double %strike, ptr %strike.addr, align 8, !tbaa !18
  store i32 %optionType, ptr %optionType.addr, align 4, !tbaa !39
  store double %deflator, ptr %deflator.addr, align 8, !tbaa !18
  %this1 = load ptr, ptr %this.addr, align 8
  call void @llvm.lifetime.start.p0(i64 8, ptr %variance) #18
  %smile_ = getelementptr inbounds nuw %"class.QuantLib::MarketQuotedOptionPricer", ptr %this1, i32 0, i32 5
  %call = call noundef ptr @_ZNK5boost10shared_ptrIN8QuantLib12SmileSectionEEptEv(ptr noundef nonnull align 8 dereferenceable(16) %smile_)
  %0 = load double, ptr %strike.addr, align 8, !tbaa !18
  %call2 = call noundef double @_ZNK8QuantLib12SmileSection8varianceEd(ptr noundef nonnull align 8 dereferenceable(72) %call, double noundef %0)
  store double %call2, ptr %variance, align 8, !tbaa !18
  %volatilityStructure_ = getelementptr inbounds nuw %"class.QuantLib::MarketQuotedOptionPricer", ptr %this1, i32 0, i32 4
  %call3 = call noundef ptr @_ZNK5boost10shared_ptrIN8QuantLib27SwaptionVolatilityStructureEEptEv(ptr noundef nonnull align 8 dereferenceable(16) %volatilityStructure_)
  %vtable = load ptr, ptr %call3, align 8, !tbaa !12
  %vfn = getelementptr inbounds ptr, ptr %vtable, i64 13
  %1 = load ptr, ptr %vfn, align 8
  %call4 = call noundef i32 %1(ptr noundef nonnull align 8 dereferenceable(68) %call3)
  %cmp = icmp eq i32 %call4, 0
  br i1 %cmp, label %if.then, label %if.else

if.then:                                          ; preds = %entry
  %2 = load double, ptr %deflator.addr, align 8, !tbaa !18
  %3 = load i32, ptr %optionType.addr, align 4, !tbaa !39
  %4 = load double, ptr %strike.addr, align 8, !tbaa !18
  %forwardValue_ = getelementptr inbounds nuw %"class.QuantLib::MarketQuotedOptionPricer", ptr %this1, i32 0, i32 1
  %5 = load double, ptr %forwardValue_, align 8, !tbaa !19
  %6 = load double, ptr %variance, align 8, !tbaa !18
  %call5 = call double @sqrt(double noundef %6) #18, !tbaa !32
  %call6 = call noundef double @_ZN8QuantLib12blackFormulaENS_6Option4TypeEddddd(i32 noundef %3, double noundef %4, double noundef %5, double noundef %call5, double noundef 1.000000e+00, double noundef 0.000000e+00)
  %mul = fmul double %2, %call6
  store double %mul, ptr %retval, align 8
  store i32 1, ptr %cleanup.dest.slot, align 4
  br label %cleanup

if.else:                                          ; preds = %entry
  %7 = load double, ptr %deflator.addr, align 8, !tbaa !18
  %8 = load i32, ptr %optionType.addr, align 4, !tbaa !39
  %9 = load double, ptr %strike.addr, align 8, !tbaa !18
  %forwardValue_7 = getelementptr inbounds nuw %"class.QuantLib::MarketQuotedOptionPricer", ptr %this1, i32 0, i32 1
  %10 = load double, ptr %forwardValue_7, align 8, !tbaa !19
  %11 = load double, ptr %variance, align 8, !tbaa !18
  %call8 = call double @sqrt(double noundef %11) #18, !tbaa !32
  %call9 = call noundef double @_ZN8QuantLib21bachelierBlackFormulaENS_6Option4TypeEdddd(i32 noundef %8, double noundef %9, double noundef %10, double noundef %call8, double noundef 1.000000e+00)
  %mul10 = fmul double %7, %call9
  store double %mul10, ptr %retval, align 8
  store i32 1, ptr %cleanup.dest.slot, align 4
  br label %cleanup

cleanup:                                          ; preds = %if.else, %if.then
  call void @llvm.lifetime.end.p0(i64 8, ptr %variance) #18
  %12 = load double, ptr %retval, align 8
  ret double %12
}