; Function Attrs: mustprogress uwtable
define noundef double @_ZNK8QuantLib24MarketQuotedOptionPricerclEdNS_6Option4TypeEd(ptr nocapture noundef nonnull readonly align 8 dereferenceable(64) %this, double noundef %strike, i32 noundef %optionType, double noundef %deflator) unnamed_addr #7 align 2 {
entry:
  %smile_ = getelementptr inbounds nuw i8, ptr %this, i64 48
  %0 = load ptr, ptr %smile_, align 8, !tbaa !57
  %cmp.not.i = icmp eq ptr %0, null
  br i1 %cmp.not.i, label %cond.false.i, label %_ZNK5boost10shared_ptrIN8QuantLib12SmileSectionEEptEv.exit, !prof !53

cond.false.i:                                     ; preds = %entry
  tail call void @_ZN5boost16assertion_failedEPKcS1_S1_l(ptr noundef nonnull @.str.25, ptr noundef nonnull @__PRETTY_FUNCTION__._ZNK5boost10shared_ptrIN8QuantLib12SmileSectionEEptEv, ptr noundef nonnull @.str.26, i64 noundef 784)
  %.pre.i = load ptr, ptr %smile_, align 8, !tbaa !57
  br label %_ZNK5boost10shared_ptrIN8QuantLib12SmileSectionEEptEv.exit

_ZNK5boost10shared_ptrIN8QuantLib12SmileSectionEEptEv.exit: ; preds = %entry, %cond.false.i
  %1 = phi ptr [ %0, %entry ], [ %.pre.i, %cond.false.i ]
  %vtable.i = load ptr, ptr %1, align 8, !tbaa !35
  %vfn.i = getelementptr inbounds i8, ptr %vtable.i, i64 136
  %2 = load ptr, ptr %vfn.i, align 8
  %call.i = tail call noundef double %2(ptr noundef nonnull align 8 dereferenceable(72) %1, double noundef %strike)
  %volatilityStructure_ = getelementptr inbounds nuw i8, ptr %this, i64 32
  %3 = load ptr, ptr %volatilityStructure_, align 8, !tbaa !52
  %cmp.not.i6 = icmp eq ptr %3, null
  br i1 %cmp.not.i6, label %cond.false.i7, label %_ZNK5boost10shared_ptrIN8QuantLib27SwaptionVolatilityStructureEEptEv.exit, !prof !53

cond.false.i7:                                    ; preds = %_ZNK5boost10shared_ptrIN8QuantLib12SmileSectionEEptEv.exit
  tail call void @_ZN5boost16assertion_failedEPKcS1_S1_l(ptr noundef nonnull @.str.25, ptr noundef nonnull @__PRETTY_FUNCTION__._ZNK5boost10shared_ptrIN8QuantLib27SwaptionVolatilityStructureEEptEv, ptr noundef nonnull @.str.26, i64 noundef 784)
  %.pre.i8 = load ptr, ptr %volatilityStructure_, align 8, !tbaa !52
  br label %_ZNK5boost10shared_ptrIN8QuantLib27SwaptionVolatilityStructureEEptEv.exit

_ZNK5boost10shared_ptrIN8QuantLib27SwaptionVolatilityStructureEEptEv.exit: ; preds = %_ZNK5boost10shared_ptrIN8QuantLib12SmileSectionEEptEv.exit, %cond.false.i7
  %4 = phi ptr [ %3, %_ZNK5boost10shared_ptrIN8QuantLib12SmileSectionEEptEv.exit ], [ %.pre.i8, %cond.false.i7 ]
  %vtable = load ptr, ptr %4, align 8, !tbaa !35
  %vfn = getelementptr inbounds i8, ptr %vtable, i64 104
  %5 = load ptr, ptr %vfn, align 8
  %call4 = tail call noundef i32 %5(ptr noundef nonnull align 8 dereferenceable(68) %4)
  %cmp = icmp eq i32 %call4, 0
  %forwardValue_ = getelementptr inbounds nuw i8, ptr %this, i64 8
  %6 = load double, ptr %forwardValue_, align 8, !tbaa !43
  %call5 = tail call double @sqrt(double noundef %call.i) #35, !tbaa !58
  br i1 %cmp, label %if.then, label %if.else

if.then:                                          ; preds = %_ZNK5boost10shared_ptrIN8QuantLib27SwaptionVolatilityStructureEEptEv.exit
  %call6 = tail call noundef double @_ZN8QuantLib12blackFormulaENS_6Option4TypeEddddd(i32 noundef %optionType, double noundef %strike, double noundef %6, double noundef %call5, double noundef 1.000000e+00, double noundef 0.000000e+00)
  br label %cleanup

if.else:                                          ; preds = %_ZNK5boost10shared_ptrIN8QuantLib27SwaptionVolatilityStructureEEptEv.exit
  %call9 = tail call noundef double @_ZN8QuantLib21bachelierBlackFormulaENS_6Option4TypeEdddd(i32 noundef %optionType, double noundef %strike, double noundef %6, double noundef %call5, double noundef 1.000000e+00)
  br label %cleanup

cleanup:                                          ; preds = %if.else, %if.then
  %call6.pn = phi double [ %call6, %if.then ], [ %call9, %if.else ]
  %retval.0 = fmul double %deflator, %call6.pn
  ret double %retval.0
}